; ModuleID = 'source-C-CXX/18/552.c'
source_filename = "source-C-CXX/18/552.c"
target datalayout = "e-m:e-p270:32:32-p271:32:32-p272:64:64-i64:64-f80:128-n8:16:32:64-S128"
target triple = "x86_64-pc-linux-gnu"

@.str = private unnamed_addr constant [3 x i8] c"%s\00", align 1

; Function Attrs: nounwind sspstrong uwtable
define dso_local i32 @main() local_unnamed_addr #0 {
  %1 = alloca [100 x i8], align 16
  %2 = alloca [50 x [20 x i8]], align 16
  %3 = alloca [20 x i8], align 16
  %4 = alloca [20 x i8], align 16
  %5 = getelementptr inbounds [100 x i8], [100 x i8]* %1, i64 0, i64 0
  call void @llvm.lifetime.start.p0i8(i64 100, i8* nonnull %5) #8
  %6 = getelementptr inbounds [50 x [20 x i8]], [50 x [20 x i8]]* %2, i64 0, i64 0, i64 0
  call void @llvm.lifetime.start.p0i8(i64 1000, i8* nonnull %6) #8
  call void @llvm.memset.p0i8.i64(i8* noundef nonnull align 16 dereferenceable(1000) %6, i8 0, i64 1000, i1 false)
  %7 = getelementptr inbounds [20 x i8], [20 x i8]* %3, i64 0, i64 0
  call void @llvm.lifetime.start.p0i8(i64 20, i8* nonnull %7) #8
  %8 = getelementptr inbounds [20 x i8], [20 x i8]* %4, i64 0, i64 0
  call void @llvm.lifetime.start.p0i8(i64 20, i8* nonnull %8) #8
  %9 = call i32 (i8*, ...) bitcast (i32 (...)* @gets to i32 (i8*, ...)*)(i8* nonnull %5) #8
  %10 = call i32 (i8*, ...) bitcast (i32 (...)* @gets to i32 (i8*, ...)*)(i8* nonnull %7) #8
  %11 = call i32 (i8*, ...) bitcast (i32 (...)* @gets to i32 (i8*, ...)*)(i8* nonnull %8) #8
  %12 = call i64 @strlen(i8* noundef nonnull %5) #9
  %13 = trunc i64 %12 to i32
  %14 = icmp sgt i32 %13, 0
  br i1 %14, label %15, label %62

15:                                               ; preds = %0
  %16 = and i64 %12, 4294967295
  %17 = and i64 %12, 1
  %18 = icmp eq i64 %16, 1
  br i1 %18, label %21, label %19

19:                                               ; preds = %15
  %20 = sub nsw i64 %16, %17
  br label %40

21:                                               ; preds = %99, %15
  %22 = phi i32 [ undef, %15 ], [ %100, %99 ]
  %23 = phi i64 [ 0, %15 ], [ %102, %99 ]
  %24 = phi i32 [ 0, %15 ], [ %101, %99 ]
  %25 = phi i32 [ 0, %15 ], [ %100, %99 ]
  %26 = icmp eq i64 %17, 0
  br i1 %26, label %37, label %27

27:                                               ; preds = %21
  %28 = getelementptr inbounds [100 x i8], [100 x i8]* %1, i64 0, i64 %23
  %29 = load i8, i8* %28, align 1, !tbaa !5
  %30 = icmp eq i8 %29, 32
  br i1 %30, label %35, label %31

31:                                               ; preds = %27
  %32 = sext i32 %25 to i64
  %33 = sext i32 %24 to i64
  %34 = getelementptr inbounds [50 x [20 x i8]], [50 x [20 x i8]]* %2, i64 0, i64 %32, i64 %33
  store i8 %29, i8* %34, align 1, !tbaa !5
  br label %37

35:                                               ; preds = %27
  %36 = add nsw i32 %25, 1
  br label %37

37:                                               ; preds = %35, %31, %21
  %38 = phi i32 [ %22, %21 ], [ %25, %31 ], [ %36, %35 ]
  %39 = icmp slt i32 %38, 0
  br i1 %39, label %87, label %62

40:                                               ; preds = %99, %19
  %41 = phi i64 [ 0, %19 ], [ %102, %99 ]
  %42 = phi i32 [ 0, %19 ], [ %101, %99 ]
  %43 = phi i32 [ 0, %19 ], [ %100, %99 ]
  %44 = phi i64 [ %20, %19 ], [ %103, %99 ]
  %45 = getelementptr inbounds [100 x i8], [100 x i8]* %1, i64 0, i64 %41
  %46 = load i8, i8* %45, align 2, !tbaa !5
  %47 = icmp eq i8 %46, 32
  br i1 %47, label %53, label %48

48:                                               ; preds = %40
  %49 = sext i32 %43 to i64
  %50 = sext i32 %42 to i64
  %51 = getelementptr inbounds [50 x [20 x i8]], [50 x [20 x i8]]* %2, i64 0, i64 %49, i64 %50
  store i8 %46, i8* %51, align 1, !tbaa !5
  %52 = add nsw i32 %42, 1
  br label %55

53:                                               ; preds = %40
  %54 = add nsw i32 %43, 1
  br label %55

55:                                               ; preds = %48, %53
  %56 = phi i32 [ %43, %48 ], [ %54, %53 ]
  %57 = phi i32 [ %52, %48 ], [ 0, %53 ]
  %58 = or i64 %41, 1
  %59 = getelementptr inbounds [100 x i8], [100 x i8]* %1, i64 0, i64 %58
  %60 = load i8, i8* %59, align 1, !tbaa !5
  %61 = icmp eq i8 %60, 32
  br i1 %61, label %97, label %92

62:                                               ; preds = %0, %37
  %63 = phi i32 [ %38, %37 ], [ 0, %0 ]
  %64 = add nuw i32 %63, 1
  %65 = zext i32 %64 to i64
  br label %70

66:                                               ; preds = %77
  %67 = icmp sgt i32 %63, 0
  br i1 %67, label %68, label %87

68:                                               ; preds = %66
  %69 = zext i32 %63 to i64
  br label %80

70:                                               ; preds = %62, %77
  %71 = phi i64 [ 0, %62 ], [ %78, %77 ]
  %72 = getelementptr inbounds [50 x [20 x i8]], [50 x [20 x i8]]* %2, i64 0, i64 %71, i64 0
  %73 = call i32 @strcmp(i8* noundef nonnull %72, i8* noundef nonnull %7) #9
  %74 = icmp eq i32 %73, 0
  br i1 %74, label %75, label %77

75:                                               ; preds = %70
  %76 = call i8* @strcpy(i8* noundef nonnull %72, i8* noundef nonnull %8) #8
  br label %77

77:                                               ; preds = %70, %75
  %78 = add nuw nsw i64 %71, 1
  %79 = icmp eq i64 %78, %65
  br i1 %79, label %66, label %70, !llvm.loop !8

80:                                               ; preds = %68, %80
  %81 = phi i64 [ 0, %68 ], [ %85, %80 ]
  %82 = getelementptr inbounds [50 x [20 x i8]], [50 x [20 x i8]]* %2, i64 0, i64 %81, i64 0
  %83 = call i32 (i8*, ...) @printf(i8* nonnull dereferenceable(1) getelementptr inbounds ([3 x i8], [3 x i8]* @.str, i64 0, i64 0), i8* nonnull %82)
  %84 = call i32 @putchar(i32 32)
  %85 = add nuw nsw i64 %81, 1
  %86 = icmp eq i64 %85, %69
  br i1 %86, label %87, label %80, !llvm.loop !10

87:                                               ; preds = %80, %37, %66
  %88 = phi i32 [ %63, %66 ], [ %38, %37 ], [ %63, %80 ]
  %89 = sext i32 %88 to i64
  %90 = getelementptr inbounds [50 x [20 x i8]], [50 x [20 x i8]]* %2, i64 0, i64 %89, i64 0
  %91 = call i32 (i8*, ...) @printf(i8* nonnull dereferenceable(1) getelementptr inbounds ([3 x i8], [3 x i8]* @.str, i64 0, i64 0), i8* nonnull %90)
  call void @llvm.lifetime.end.p0i8(i64 20, i8* nonnull %8) #8
  call void @llvm.lifetime.end.p0i8(i64 20, i8* nonnull %7) #8
  call void @llvm.lifetime.end.p0i8(i64 1000, i8* nonnull %6) #8
  call void @llvm.lifetime.end.p0i8(i64 100, i8* nonnull %5) #8
  ret i32 0

92:                                               ; preds = %55
  %93 = sext i32 %56 to i64
  %94 = sext i32 %57 to i64
  %95 = getelementptr inbounds [50 x [20 x i8]], [50 x [20 x i8]]* %2, i64 0, i64 %93, i64 %94
  store i8 %60, i8* %95, align 1, !tbaa !5
  %96 = add nsw i32 %57, 1
  br label %99

97:                                               ; preds = %55
  %98 = add nsw i32 %56, 1
  br label %99

99:                                               ; preds = %97, %92
  %100 = phi i32 [ %56, %92 ], [ %98, %97 ]
  %101 = phi i32 [ %96, %92 ], [ 0, %97 ]
  %102 = add nuw nsw i64 %41, 2
  %103 = add i64 %44, -2
  %104 = icmp eq i64 %103, 0
  br i1 %104, label %21, label %40, !llvm.loop !11
}

; Function Attrs: argmemonly mustprogress nofree nosync nounwind willreturn
declare void @llvm.lifetime.start.p0i8(i64 immarg, i8* nocapture) #1

; Function Attrs: argmemonly mustprogress nofree nounwind willreturn writeonly
declare void @llvm.memset.p0i8.i64(i8* nocapture writeonly, i8, i64, i1 immarg) #2

declare i32 @gets(...) local_unnamed_addr #3

; Function Attrs: argmemonly mustprogress nofree nounwind readonly willreturn
declare i64 @strlen(i8* nocapture) local_unnamed_addr #4

; Function Attrs: argmemonly mustprogress nofree nounwind readonly willreturn
declare i32 @strcmp(i8* nocapture, i8* nocapture) local_unnamed_addr #4

; Function Attrs: argmemonly mustprogress nofree nounwind willreturn
declare i8* @strcpy(i8* noalias returned writeonly, i8* noalias nocapture readonly) local_unnamed_addr #5

; Function Attrs: nofree nounwind
declare noundef i32 @printf(i8* nocapture noundef readonly, ...) local_unnamed_addr #6

; Function Attrs: argmemonly mustprogress nofree nosync nounwind willreturn
declare void @llvm.lifetime.end.p0i8(i64 immarg, i8* nocapture) #1

; Function Attrs: nofree nounwind
declare noundef i32 @putchar(i32 noundef) local_unnamed_addr #7


!llvm.module.flags = !{!0, !1, !2, !3}
!llvm.ident = !{!4}

!0 = !{i32 1, !"wchar_size", i32 4}
!1 = !{i32 7, !"PIC Level", i32 2}
!2 = !{i32 7, !"PIE Level", i32 2}
!3 = !{i32 7, !"uwtable", i32 1}
!4 = !{!"clang version 13.0.0"}
!5 = !{!6, !6, i64 0}
!6 = !{!"omnipotent char", !7, i64 0}
!7 = !{!"Simple C/C++ TBAA"}
!8 = distinct !{!8, !9}
!9 = !{!"llvm.loop.mustprogress"}
!10 = distinct !{!10, !9}
!11 = distinct !{!11, !9}
